target datalayout = "e-m:e-p270:32:32-p271:32:32-p272:64:64-i64:64-i128:128-f80:128-n8:16:32:64-S128"
target triple = "x86_64-pc-linux-gnu"

%struct.strbuf = type { i64, i64, ptr }
%struct.stash_info = type { %struct.object_id, %struct.object_id, %struct.object_id, %struct.object_id, %struct.object_id, %struct.object_id, %struct.object_id, %struct.object_id, %struct.strbuf, i32, i32 }
%struct.object_id = type { [32 x i8], i32 }
%struct.option = type { i32, i32, ptr, ptr, ptr, ptr, i32, ptr, i64, ptr, i64, ptr }

@.str.12 = private unnamed_addr constant [6 x i8] c"quiet\00", align 1
@.str.13 = private unnamed_addr constant [29 x i8] c"be quiet, only report errors\00", align 1
@.str.14 = private unnamed_addr constant [6 x i8] c"index\00", align 1
@.str.15 = private unnamed_addr constant [30 x i8] c"attempt to recreate the index\00", align 1
@.str.25 = private unnamed_addr constant [1 x i8] zeroinitializer, align 1
@git_gettext_enabled = external global i32, align 4
@.str.64 = private unnamed_addr constant [30 x i8] c"'%s' is not a stash reference\00", align 1
@git_stash_pop_usage = internal constant [2 x ptr] [ptr @.str.68, ptr null], align 16
@.str.67 = private unnamed_addr constant [51 x i8] c"The stash entry is kept in case you need it again.\00", align 1

; Function Attrs: inlinehint nounwind uwtable
define internal i32 @const_error() #5 {
  ret i32 -1
}

; Function Attrs: nounwind uwtable
define internal void @free_stash_info(ptr noundef %0) #0 {
  %2 = alloca ptr, align 8
  store ptr %0, ptr %2, align 8, !tbaa !109
  %3 = load ptr, ptr %2, align 8, !tbaa !109
  %4 = getelementptr inbounds nuw %struct.stash_info, ptr %3, i32 0, i32 8
  call void @strbuf_release(ptr noundef %4)
  ret void
}

; Function Attrs: inlinehint nounwind uwtable
define internal ptr @_(ptr noundef %0) #5 {
  %2 = alloca ptr, align 8
  %3 = alloca ptr, align 8
  store ptr %0, ptr %3, align 8, !tbaa !11
  %4 = load ptr, ptr %3, align 8, !tbaa !11
  %5 = load i8, ptr %4, align 1, !tbaa !58
  %6 = icmp ne i8 %5, 0
  br i1 %6, label %8, label %7

7:                                                ; preds = %1
  store ptr @.str.25, ptr %2, align 8
  br label %16

8:                                                ; preds = %1
  %9 = load i32, ptr @git_gettext_enabled, align 4, !tbaa !4
  %10 = icmp ne i32 %9, 0
  br i1 %10, label %13, label %11

11:                                               ; preds = %8
  %12 = load ptr, ptr %3, align 8, !tbaa !11
  store ptr %12, ptr %2, align 8
  br label %16

13:                                               ; preds = %8
  %14 = load ptr, ptr %3, align 8, !tbaa !11
  %15 = call ptr @dcgettext(ptr noundef null, ptr noundef %14, i32 noundef 5) #9
  store ptr %15, ptr %2, align 8
  br label %16

16:                                               ; preds = %13, %11, %7
  %17 = load ptr, ptr %2, align 8
  ret ptr %17
}

; Function Attrs: nounwind uwtable
define internal i32 @get_stash_info_assert(ptr noundef %0, i32 noundef %1, ptr noundef %2) #0 {
  %4 = alloca i32, align 4
  %5 = alloca ptr, align 8
  %6 = alloca i32, align 4
  %7 = alloca ptr, align 8
  %8 = alloca i32, align 4
  %9 = alloca i32, align 4
  store ptr %0, ptr %5, align 8, !tbaa !109
  store i32 %1, ptr %6, align 4, !tbaa !4
  store ptr %2, ptr %7, align 8, !tbaa !8
  call void @llvm.lifetime.start.p0(i64 4, ptr %8) #9
  %10 = load ptr, ptr %5, align 8, !tbaa !109
  %11 = load i32, ptr %6, align 4, !tbaa !4
  %12 = load ptr, ptr %7, align 8, !tbaa !8
  %13 = call i32 @get_stash_info(ptr noundef %10, i32 noundef %11, ptr noundef %12)
  store i32 %13, ptr %8, align 4, !tbaa !4
  %14 = load i32, ptr %8, align 4, !tbaa !4
  %15 = icmp slt i32 %14, 0
  br i1 %15, label %16, label %18

16:                                               ; preds = %3
  %17 = load i32, ptr %8, align 4, !tbaa !4
  store i32 %17, ptr %4, align 4
  store i32 1, ptr %9, align 4
  br label %32

18:                                               ; preds = %3
  %19 = load ptr, ptr %5, align 8, !tbaa !109
  %20 = getelementptr inbounds nuw %struct.stash_info, ptr %19, i32 0, i32 9
  %21 = load i32, ptr %20, align 8, !tbaa !54
  %22 = icmp ne i32 %21, 0
  br i1 %22, label %31, label %23

23:                                               ; preds = %18
  %24 = call ptr @_(ptr noundef @.str.64)
  %25 = load ptr, ptr %5, align 8, !tbaa !109
  %26 = getelementptr inbounds nuw %struct.stash_info, ptr %25, i32 0, i32 8
  %27 = getelementptr inbounds nuw %struct.strbuf, ptr %26, i32 0, i32 2
  %28 = load ptr, ptr %27, align 8, !tbaa !113
  %29 = call i32 (ptr, ...) @error(ptr noundef %24, ptr noundef %28)
  %30 = call i32 @const_error()
  store i32 %30, ptr %4, align 4
  store i32 1, ptr %9, align 4
  br label %32

31:                                               ; preds = %18
  store i32 0, ptr %4, align 4
  store i32 1, ptr %9, align 4
  br label %32

32:                                               ; preds = %31, %23, %16
  call void @llvm.lifetime.end.p0(i64 4, ptr %8) #9
  %33 = load i32, ptr %4, align 4
  ret i32 %33
}

; Function Attrs: nounwind uwtable
define internal i32 @pop_stash(i32 noundef %0, ptr noundef %1, ptr noundef %2, ptr noundef %3) #0 {
  %5 = alloca i32, align 4
  %6 = alloca ptr, align 8
  %7 = alloca ptr, align 8
  %8 = alloca ptr, align 8
  %9 = alloca i32, align 4
  %10 = alloca i32, align 4
  %11 = alloca i32, align 4
  %12 = alloca %struct.stash_info, align 8
  %13 = alloca [3 x %struct.option], align 16
  store i32 %0, ptr %5, align 4, !tbaa !4
  store ptr %1, ptr %6, align 8, !tbaa !8
  store ptr %2, ptr %7, align 8, !tbaa !11
  store ptr %3, ptr %8, align 8, !tbaa !13
  call void @llvm.lifetime.start.p0(i64 4, ptr %9) #9
  store i32 -1, ptr %9, align 4, !tbaa !4
  call void @llvm.lifetime.start.p0(i64 4, ptr %10) #9
  store i32 0, ptr %10, align 4, !tbaa !4
  call void @llvm.lifetime.start.p0(i64 4, ptr %11) #9
  store i32 0, ptr %11, align 4, !tbaa !4
  call void @llvm.lifetime.start.p0(i64 320, ptr %12) #9
  call void @llvm.memcpy.p0.p0.i64(ptr align 8 %12, ptr align 8 @__const.pop_stash.info, i64 320, i1 false)
  call void @llvm.lifetime.start.p0(i64 264, ptr %13) #9
  %14 = getelementptr inbounds nuw %struct.option, ptr %13, i32 0, i32 0
  store i32 8, ptr %14, align 8, !tbaa !16
  %15 = getelementptr inbounds nuw %struct.option, ptr %13, i32 0, i32 1
  store i32 113, ptr %15, align 4, !tbaa !19
  %16 = getelementptr inbounds nuw %struct.option, ptr %13, i32 0, i32 2
  store ptr @.str.12, ptr %16, align 8, !tbaa !20
  %17 = getelementptr inbounds nuw %struct.option, ptr %13, i32 0, i32 3
  store ptr %11, ptr %17, align 8, !tbaa !21
  %18 = getelementptr inbounds nuw %struct.option, ptr %13, i32 0, i32 4
  store ptr null, ptr %18, align 8, !tbaa !22
  %19 = getelementptr inbounds nuw %struct.option, ptr %13, i32 0, i32 5
  store ptr @.str.13, ptr %19, align 8, !tbaa !23
  %20 = getelementptr inbounds nuw %struct.option, ptr %13, i32 0, i32 6
  store i32 2, ptr %20, align 8, !tbaa !24
  %21 = getelementptr i8, ptr %13, i64 44
  call void @llvm.memset.p0.i64(ptr align 4 %21, i8 0, i64 4, i1 false)
  %22 = getelementptr inbounds nuw %struct.option, ptr %13, i32 0, i32 7
  store ptr null, ptr %22, align 8, !tbaa !25
  %23 = getelementptr inbounds nuw %struct.option, ptr %13, i32 0, i32 8
  store i64 0, ptr %23, align 8, !tbaa !26
  %24 = getelementptr inbounds nuw %struct.option, ptr %13, i32 0, i32 9
  store ptr null, ptr %24, align 8, !tbaa !27
  %25 = getelementptr inbounds nuw %struct.option, ptr %13, i32 0, i32 10
  store i64 0, ptr %25, align 8, !tbaa !28
  %26 = getelementptr inbounds nuw %struct.option, ptr %13, i32 0, i32 11
  store ptr null, ptr %26, align 8, !tbaa !29
  %27 = getelementptr inbounds %struct.option, ptr %13, i64 1
  %28 = getelementptr inbounds nuw %struct.option, ptr %27, i32 0, i32 0
  store i32 9, ptr %28, align 8, !tbaa !16
  %29 = getelementptr inbounds nuw %struct.option, ptr %27, i32 0, i32 1
  store i32 0, ptr %29, align 4, !tbaa !19
  %30 = getelementptr inbounds nuw %struct.option, ptr %27, i32 0, i32 2
  store ptr @.str.14, ptr %30, align 8, !tbaa !20
  %31 = getelementptr inbounds nuw %struct.option, ptr %27, i32 0, i32 3
  store ptr %10, ptr %31, align 8, !tbaa !21
  %32 = getelementptr inbounds nuw %struct.option, ptr %27, i32 0, i32 4
  store ptr null, ptr %32, align 8, !tbaa !22
  %33 = getelementptr inbounds nuw %struct.option, ptr %27, i32 0, i32 5
  store ptr @.str.15, ptr %33, align 8, !tbaa !23
  %34 = getelementptr inbounds nuw %struct.option, ptr %27, i32 0, i32 6
  store i32 2, ptr %34, align 8, !tbaa !24
  %35 = getelementptr i8, ptr %27, i64 44
  call void @llvm.memset.p0.i64(ptr align 4 %35, i8 0, i64 4, i1 false)
  %36 = getelementptr inbounds nuw %struct.option, ptr %27, i32 0, i32 7
  store ptr null, ptr %36, align 8, !tbaa !25
  %37 = getelementptr inbounds nuw %struct.option, ptr %27, i32 0, i32 8
  store i64 1, ptr %37, align 8, !tbaa !26
  %38 = getelementptr inbounds nuw %struct.option, ptr %27, i32 0, i32 9
  store ptr null, ptr %38, align 8, !tbaa !27
  %39 = getelementptr inbounds nuw %struct.option, ptr %27, i32 0, i32 10
  store i64 0, ptr %39, align 8, !tbaa !28
  %40 = getelementptr inbounds nuw %struct.option, ptr %27, i32 0, i32 11
  store ptr null, ptr %40, align 8, !tbaa !29
  %41 = getelementptr inbounds %struct.option, ptr %13, i64 2
  call void @llvm.memset.p0.i64(ptr align 8 %41, i8 0, i64 88, i1 false)
  %42 = getelementptr inbounds nuw %struct.option, ptr %41, i32 0, i32 0
  store i32 0, ptr %42, align 8, !tbaa !16
  %43 = load i32, ptr %5, align 4, !tbaa !4
  %44 = load ptr, ptr %6, align 8, !tbaa !8
  %45 = load ptr, ptr %7, align 8, !tbaa !11
  %46 = getelementptr inbounds [3 x %struct.option], ptr %13, i64 0, i64 0
  %47 = call i32 @parse_options(i32 noundef %43, ptr noundef %44, ptr noundef %45, ptr noundef %46, ptr noundef @git_stash_pop_usage, i32 noundef 0)
  store i32 %47, ptr %5, align 4, !tbaa !4
  %48 = load i32, ptr %5, align 4, !tbaa !4
  %49 = load ptr, ptr %6, align 8, !tbaa !8
  %50 = call i32 @get_stash_info_assert(ptr noundef %12, i32 noundef %48, ptr noundef %49)
  %51 = icmp ne i32 %50, 0
  br i1 %51, label %52, label %53

52:                                               ; preds = %4
  br label %66

53:                                               ; preds = %4
  %54 = load ptr, ptr %7, align 8, !tbaa !11
  %55 = load i32, ptr %10, align 4, !tbaa !4
  %56 = load i32, ptr %11, align 4, !tbaa !4
  %57 = call i32 @do_apply_stash(ptr noundef %54, ptr noundef %12, i32 noundef %55, i32 noundef %56)
  store i32 %57, ptr %9, align 4, !tbaa !4
  %58 = icmp ne i32 %57, 0
  br i1 %58, label %59, label %62

59:                                               ; preds = %53
  %60 = call ptr @_(ptr noundef @.str.67)
  %61 = call i32 (ptr, ...) @printf_ln(ptr noundef %60)
  br label %65

62:                                               ; preds = %53
  %63 = load i32, ptr %11, align 4, !tbaa !4
  %64 = call i32 @do_drop_stash(ptr noundef %12, i32 noundef %63)
  store i32 %64, ptr %9, align 4, !tbaa !4
  br label %65

65:                                               ; preds = %62, %59
  br label %66

66:                                               ; preds = %65, %52
  call void @free_stash_info(ptr noundef %12)
  %67 = load i32, ptr %9, align 4, !tbaa !4
  call void @llvm.lifetime.end.p0(i64 264, ptr %13) #9
  call void @llvm.lifetime.end.p0(i64 320, ptr %12) #9
  call void @llvm.lifetime.end.p0(i64 4, ptr %11) #9
  call void @llvm.lifetime.end.p0(i64 4, ptr %10) #9
  call void @llvm.lifetime.end.p0(i64 4, ptr %9) #9
  ret i32 %67
}