; Function Attrs: nounwind uwtable
define internal range(i32 -2147483648, 2) i32 @pop_stash(i32 noundef %0, ptr noundef %1, ptr noundef %2, ptr readnone captures(none) %3) #0 {
  %5 = alloca i32, align 4
  %6 = alloca i32, align 4
  %7 = alloca %struct.stash_info, align 8
  %8 = alloca [3 x %struct.option], align 16
  call void @llvm.lifetime.start.p0(i64 4, ptr nonnull %5) #15
  store i32 0, ptr %5, align 4, !tbaa !42
  call void @llvm.lifetime.start.p0(i64 4, ptr nonnull %6) #15
  store i32 0, ptr %6, align 4, !tbaa !42
  call void @llvm.lifetime.start.p0(i64 320, ptr nonnull %7) #15
  call void @llvm.memcpy.p0.p0.i64(ptr noundef nonnull align 8 dereferenceable(320) %7, ptr noundef nonnull align 8 dereferenceable(320) @__const.do_push_stash.info, i64 320, i1 false)
  call void @llvm.lifetime.start.p0(i64 264, ptr nonnull %8) #15
  store i32 8, ptr %8, align 16, !tbaa !8
  %9 = getelementptr inbounds nuw i8, ptr %8, i64 4
  store i32 113, ptr %9, align 4, !tbaa !13
  %10 = getelementptr inbounds nuw i8, ptr %8, i64 8
  store ptr @.str.12, ptr %10, align 8, !tbaa !14
  %11 = getelementptr inbounds nuw i8, ptr %8, i64 16
  store ptr %6, ptr %11, align 16, !tbaa !15
  %12 = getelementptr inbounds nuw i8, ptr %8, i64 24
  store ptr null, ptr %12, align 8, !tbaa !43
  %13 = getelementptr inbounds nuw i8, ptr %8, i64 32
  store ptr @.str.13, ptr %13, align 16, !tbaa !44
  %14 = getelementptr inbounds nuw i8, ptr %8, i64 40
  store i32 2, ptr %14, align 8, !tbaa !17
  %15 = getelementptr inbounds nuw i8, ptr %8, i64 44
  %16 = getelementptr inbounds nuw i8, ptr %8, i64 88
  call void @llvm.memset.p0.i64(ptr noundef nonnull align 4 dereferenceable(44) %15, i8 0, i64 44, i1 false)
  store i32 9, ptr %16, align 8, !tbaa !8
  %17 = getelementptr inbounds nuw i8, ptr %8, i64 92
  store i32 0, ptr %17, align 4, !tbaa !13
  %18 = getelementptr inbounds nuw i8, ptr %8, i64 96
  store ptr @.str.14, ptr %18, align 16, !tbaa !14
  %19 = getelementptr inbounds nuw i8, ptr %8, i64 104
  store ptr %5, ptr %19, align 8, !tbaa !15
  %20 = getelementptr inbounds nuw i8, ptr %8, i64 112
  store ptr null, ptr %20, align 16, !tbaa !43
  %21 = getelementptr inbounds nuw i8, ptr %8, i64 120
  store ptr @.str.15, ptr %21, align 8, !tbaa !44
  %22 = getelementptr inbounds nuw i8, ptr %8, i64 128
  store i32 2, ptr %22, align 16, !tbaa !17
  %23 = getelementptr inbounds nuw i8, ptr %8, i64 132
  store i32 0, ptr %23, align 4
  %24 = getelementptr inbounds nuw i8, ptr %8, i64 136
  store ptr null, ptr %24, align 8, !tbaa !45
  %25 = getelementptr inbounds nuw i8, ptr %8, i64 144
  store i64 1, ptr %25, align 16, !tbaa !46
  %26 = getelementptr inbounds nuw i8, ptr %8, i64 152
  call void @llvm.memset.p0.i64(ptr noundef nonnull align 8 dereferenceable(112) %26, i8 0, i64 112, i1 false)
  %27 = call i32 @parse_options(i32 noundef %0, ptr noundef %1, ptr noundef %2, ptr noundef nonnull %8, ptr noundef nonnull @git_stash_pop_usage, i32 noundef 0) #15
  %28 = call fastcc i32 @get_stash_info(ptr noundef nonnull %7, i32 noundef %27, ptr noundef readonly %1)
  %29 = icmp slt i32 %28, 0
  br i1 %29, label %get_stash_info_assert.exit.thread, label %30

30:                                               ; preds = %4
  %31 = getelementptr inbounds nuw i8, ptr %7, i64 312
  %32 = load i32, ptr %31, align 8, !tbaa !47
  %.not.i = icmp eq i32 %32, 0
  br i1 %.not.i, label %33, label %get_stash_info_assert.exit

33:                                               ; preds = %30
  %34 = load i32, ptr @git_gettext_enabled, align 4, !tbaa !42
  %.not4.i.i = icmp eq i32 %34, 0
  br i1 %.not4.i.i, label %_.exit.i, label %35

35:                                               ; preds = %33
  %36 = call ptr @dcgettext(ptr noundef null, ptr noundef nonnull @.str.64, i32 noundef 5) #15
  br label %_.exit.i

_.exit.i:                                         ; preds = %35, %33
  %.0.i.i = phi ptr [ %36, %35 ], [ @.str.64, %33 ]
  %37 = getelementptr inbounds nuw i8, ptr %7, i64 304
  %38 = load ptr, ptr %37, align 8, !tbaa !51
  %39 = call i32 (ptr, ...) @error(ptr noundef %.0.i.i, ptr noundef %38) #15
  br label %get_stash_info_assert.exit.thread

get_stash_info_assert.exit:                       ; preds = %30
  %40 = load i32, ptr %5, align 4, !tbaa !42
  %41 = load i32, ptr %6, align 4, !tbaa !42
  %42 = call fastcc i32 @do_apply_stash(ptr noundef %2, ptr noundef %7, i32 noundef %40, i32 noundef %41)
  %.not7 = icmp eq i32 %42, 0
  br i1 %.not7, label %48, label %43

43:                                               ; preds = %get_stash_info_assert.exit
  %44 = load i32, ptr @git_gettext_enabled, align 4, !tbaa !42
  %.not4.i = icmp eq i32 %44, 0
  br i1 %.not4.i, label %_.exit, label %45

45:                                               ; preds = %43
  %46 = call ptr @dcgettext(ptr noundef null, ptr noundef nonnull @.str.67, i32 noundef 5) #15
  br label %_.exit

_.exit:                                           ; preds = %43, %45
  %.0.i8 = phi ptr [ %46, %45 ], [ @.str.67, %43 ]
  %47 = call i32 (ptr, ...) @printf_ln(ptr noundef %.0.i8) #15
  br label %get_stash_info_assert.exit.thread

48:                                               ; preds = %get_stash_info_assert.exit
  %49 = load i32, ptr %6, align 4, !tbaa !42
  %50 = call fastcc i32 @do_drop_stash(ptr noundef %7, i32 noundef %49)
  br label %get_stash_info_assert.exit.thread

get_stash_info_assert.exit.thread:                ; preds = %4, %_.exit.i, %_.exit, %48
  %.0 = phi i32 [ %42, %_.exit ], [ %50, %48 ], [ -1, %_.exit.i ], [ -1, %4 ]
  %51 = getelementptr inbounds nuw i8, ptr %7, i64 288
  call void @strbuf_release(ptr noundef nonnull %51) #15
  call void @llvm.lifetime.end.p0(i64 264, ptr nonnull %8) #15
  call void @llvm.lifetime.end.p0(i64 320, ptr nonnull %7) #15
  call void @llvm.lifetime.end.p0(i64 4, ptr nonnull %6) #15
  call void @llvm.lifetime.end.p0(i64 4, ptr nonnull %5) #15
  ret i32 %.0
}